target datalayout = "e-m:e-p270:32:32-p271:32:32-p272:64:64-i64:64-i128:128-f80:128-n8:16:32:64-S128"
target triple = "x86_64-pc-linux-gnu"

%struct.nstime_t = type { i64, i32 }
%struct.smb_info = type { i8, i32, i32, i32, i32, i32, i8, i8, i8, i32, i32, ptr, ptr }
%struct.smb_saved_info_t = type { i32, i32, %struct.nstime_t, i16, i8, ptr, i32, i8, i16 }
%struct.smb_transact_info_t = type { i32, i32, i32, i16, i16, ptr, ptr, ptr, i32 }
%struct.lanman_desc = type { i32, ptr, ptr, ptr, ptr, ptr, ptr, ptr, ptr, ptr, ptr, ptr, ptr }
%struct.item_list_t = type { i32, ptr }

@hf_data_no_descriptor = internal global i32 0, align 4
@ett_lanman_unknown_entries = internal global i32 0, align 4
@.str.733 = private unnamed_addr constant [8 x i8] c"Entries\00", align 1
@.str.734 = private unnamed_addr constant [27 x i8] c" (No descriptor available)\00", align 1

; Function Attrs: null_pointer_is_valid sspstrong uwtable
define internal void @dissect_response_data(ptr noundef %0, ptr noundef %1, i32 noundef %2, ptr noundef %3, ptr noundef %4, ptr noundef %5, i1 noundef zeroext %6, i16 noundef zeroext %7) #0 {
  %9 = alloca ptr, align 8
  %10 = alloca ptr, align 8
  %11 = alloca i32, align 4
  %12 = alloca ptr, align 8
  %13 = alloca ptr, align 8
  %14 = alloca ptr, align 8
  %15 = alloca i8, align 1
  %16 = alloca i16, align 2
  %17 = alloca ptr, align 8
  %18 = alloca ptr, align 8
  %19 = alloca i32, align 4
  %20 = alloca i32, align 4
  %21 = alloca ptr, align 8
  %22 = alloca i32, align 4
  %23 = alloca ptr, align 8
  %24 = alloca ptr, align 8
  %25 = alloca ptr, align 8
  %26 = alloca ptr, align 8
  %27 = alloca ptr, align 8
  %28 = alloca i32, align 4
  %29 = alloca i32, align 4
  %30 = alloca i16, align 2
  store ptr %0, ptr %9, align 8
  store ptr %1, ptr %10, align 8
  store i32 %2, ptr %11, align 4
  store ptr %3, ptr %12, align 8
  store ptr %4, ptr %13, align 8
  store ptr %5, ptr %14, align 8
  %31 = zext i1 %6 to i8
  store i8 %31, ptr %15, align 1
  store i16 %7, ptr %16, align 2
  call void @llvm.lifetime.start.p0(i64 8, ptr %17) #7
  call void @llvm.lifetime.start.p0(i64 8, ptr %18) #7
  call void @llvm.lifetime.start.p0(i64 4, ptr %19) #7
  call void @llvm.lifetime.start.p0(i64 4, ptr %20) #7
  call void @llvm.lifetime.start.p0(i64 8, ptr %21) #7
  call void @llvm.lifetime.start.p0(i64 4, ptr %22) #7
  call void @llvm.lifetime.start.p0(i64 8, ptr %23) #7
  call void @llvm.lifetime.start.p0(i64 8, ptr %24) #7
  store ptr null, ptr %24, align 8
  call void @llvm.lifetime.start.p0(i64 8, ptr %25) #7
  store ptr null, ptr %25, align 8
  call void @llvm.lifetime.start.p0(i64 8, ptr %26) #7
  call void @llvm.lifetime.start.p0(i64 8, ptr %27) #7
  call void @llvm.lifetime.start.p0(i64 4, ptr %28) #7
  call void @llvm.lifetime.start.p0(i64 4, ptr %29) #7
  call void @llvm.lifetime.start.p0(i64 2, ptr %30) #7
  %32 = load ptr, ptr %13, align 8
  %33 = getelementptr inbounds nuw %struct.smb_info, ptr %32, i32 0, i32 11
  %34 = load ptr, ptr %33, align 8
  %35 = getelementptr inbounds nuw %struct.smb_saved_info_t, ptr %34, i32 0, i32 5
  %36 = load ptr, ptr %35, align 8
  store ptr %36, ptr %17, align 8
  %37 = load ptr, ptr %14, align 8
  %38 = getelementptr inbounds nuw %struct.lanman_desc, ptr %37, i32 0, i32 11
  %39 = load ptr, ptr %38, align 8
  store ptr %39, ptr %18, align 8
  br label %40

40:                                               ; preds = %55, %8
  %41 = load ptr, ptr %18, align 8
  %42 = getelementptr inbounds nuw %struct.item_list_t, ptr %41, i32 0, i32 0
  %43 = load i32, ptr %42, align 8
  %44 = icmp ne i32 %43, -1
  br i1 %44, label %45, label %58

45:                                               ; preds = %40
  %46 = load ptr, ptr %18, align 8
  %47 = getelementptr inbounds nuw %struct.item_list_t, ptr %46, i32 0, i32 0
  %48 = load i32, ptr %47, align 8
  %49 = load ptr, ptr %17, align 8
  %50 = getelementptr inbounds nuw %struct.smb_transact_info_t, ptr %49, i32 0, i32 8
  %51 = load i32, ptr %50, align 8
  %52 = icmp eq i32 %48, %51
  br i1 %52, label %53, label %54

53:                                               ; preds = %45
  br label %58

54:                                               ; preds = %45
  br label %55

55:                                               ; preds = %54
  %56 = load ptr, ptr %18, align 8
  %57 = getelementptr %struct.item_list_t, ptr %56, i32 1
  store ptr %57, ptr %18, align 8
  br label %40, !llvm.loop !15

58:                                               ; preds = %53, %40
  %59 = load ptr, ptr %18, align 8
  %60 = getelementptr inbounds nuw %struct.item_list_t, ptr %59, i32 0, i32 1
  %61 = load ptr, ptr %60, align 8
  store ptr %61, ptr %23, align 8
  store i32 0, ptr %19, align 4
  %62 = load i8, ptr %15, align 1, !range !6, !noundef !7
  %63 = trunc i8 %62 to i1
  br i1 %63, label %64, label %94

64:                                               ; preds = %58
  %65 = load ptr, ptr %12, align 8
  %66 = icmp ne ptr %65, null
  br i1 %66, label %67, label %93

67:                                               ; preds = %64
  %68 = load ptr, ptr %14, align 8
  %69 = getelementptr inbounds nuw %struct.lanman_desc, ptr %68, i32 0, i32 7
  %70 = load ptr, ptr %69, align 8
  store ptr %70, ptr %21, align 8
  %71 = load ptr, ptr %21, align 8
  %72 = icmp eq ptr %71, null
  br i1 %72, label %73, label %74

73:                                               ; preds = %67
  store ptr @.str.733, ptr %21, align 8
  br label %74

74:                                               ; preds = %73, %67
  %75 = load ptr, ptr %14, align 8
  %76 = getelementptr inbounds nuw %struct.lanman_desc, ptr %75, i32 0, i32 8
  %77 = load ptr, ptr %76, align 8
  %78 = icmp ne ptr %77, null
  br i1 %78, label %79, label %84

79:                                               ; preds = %74
  %80 = load ptr, ptr %14, align 8
  %81 = getelementptr inbounds nuw %struct.lanman_desc, ptr %80, i32 0, i32 8
  %82 = load ptr, ptr %81, align 8
  %83 = load i32, ptr %82, align 4
  store i32 %83, ptr %22, align 4
  br label %86

84:                                               ; preds = %74
  %85 = load i32, ptr @ett_lanman_unknown_entries, align 4
  store i32 %85, ptr %22, align 4
  br label %86

86:                                               ; preds = %84, %79
  %87 = load ptr, ptr %12, align 8
  %88 = load ptr, ptr %9, align 8
  %89 = load i32, ptr %19, align 4
  %90 = load i32, ptr %22, align 4
  %91 = load ptr, ptr %21, align 8
  %92 = call ptr @proto_tree_add_subtree(ptr noundef %87, ptr noundef %88, i32 noundef %89, i32 noundef -1, i32 noundef %90, ptr noundef %24, ptr noundef %91)
  store ptr %92, ptr %25, align 8
  br label %93

93:                                               ; preds = %86, %64
  br label %94

94:                                               ; preds = %93, %58
  %95 = load ptr, ptr %17, align 8
  %96 = getelementptr inbounds nuw %struct.smb_transact_info_t, ptr %95, i32 0, i32 6
  %97 = load ptr, ptr %96, align 8
  %98 = icmp eq ptr %97, null
  br i1 %98, label %99, label %120

99:                                               ; preds = %94
  %100 = load i8, ptr %15, align 1, !range !6, !noundef !7
  %101 = trunc i8 %100 to i1
  br i1 %101, label %102, label %108

102:                                              ; preds = %99
  %103 = load ptr, ptr %24, align 8
  %104 = icmp ne ptr %103, null
  br i1 %104, label %105, label %107

105:                                              ; preds = %102
  %106 = load ptr, ptr %24, align 8
  call void (ptr, ptr, ...) @proto_item_append_text(ptr noundef %106, ptr noundef @.str.734)
  br label %107

107:                                              ; preds = %105, %102
  br label %114

108:                                              ; preds = %99
  %109 = load ptr, ptr %25, align 8
  %110 = load i32, ptr @hf_data_no_descriptor, align 4
  %111 = load ptr, ptr %9, align 8
  %112 = load i32, ptr %19, align 4
  %113 = call ptr @proto_tree_add_item(ptr noundef %109, i32 noundef %110, ptr noundef %111, i32 noundef %112, i32 noundef -1, i32 noundef 0)
  br label %114

114:                                              ; preds = %108, %107
  %115 = load ptr, ptr %9, align 8
  %116 = load i32, ptr %19, align 4
  %117 = call i32 @tvb_captured_length_remaining(ptr noundef %115, i32 noundef %116)
  %118 = load i32, ptr %19, align 4
  %119 = add i32 %118, %117
  store i32 %119, ptr %19, align 4
  br label %208

120:                                              ; preds = %94
  %121 = load i8, ptr %15, align 1, !range !6, !noundef !7
  %122 = trunc i8 %121 to i1
  br i1 %122, label %124, label %123

123:                                              ; preds = %120
  store i16 1, ptr %16, align 2
  br label %124

124:                                              ; preds = %123, %120
  store i32 0, ptr %28, align 4
  br label %125

125:                                              ; preds = %204, %124
  %126 = load i32, ptr %28, align 4
  %127 = load i16, ptr %16, align 2
  %128 = zext i16 %127 to i32
  %129 = icmp ult i32 %126, %128
  br i1 %129, label %130, label %207

130:                                              ; preds = %125
  %131 = load i32, ptr %19, align 4
  store i32 %131, ptr %20, align 4
  %132 = load i8, ptr %15, align 1, !range !6, !noundef !7
  %133 = trunc i8 %132 to i1
  br i1 %133, label %134, label %153

134:                                              ; preds = %130
  %135 = load ptr, ptr %14, align 8
  %136 = getelementptr inbounds nuw %struct.lanman_desc, ptr %135, i32 0, i32 9
  %137 = load ptr, ptr %136, align 8
  %138 = icmp ne ptr %137, null
  br i1 %138, label %139, label %153

139:                                              ; preds = %134
  %140 = load ptr, ptr %14, align 8
  %141 = getelementptr inbounds nuw %struct.lanman_desc, ptr %140, i32 0, i32 9
  %142 = load ptr, ptr %141, align 8
  %143 = load ptr, ptr %9, align 8
  %144 = load ptr, ptr %25, align 8
  %145 = load i32, ptr %19, align 4
  %146 = call ptr %142(ptr noundef %143, ptr noundef %144, i32 noundef %145)
  store ptr %146, ptr %26, align 8
  %147 = load ptr, ptr %26, align 8
  %148 = load ptr, ptr %14, align 8
  %149 = getelementptr inbounds nuw %struct.lanman_desc, ptr %148, i32 0, i32 10
  %150 = load ptr, ptr %149, align 8
  %151 = load i32, ptr %150, align 4
  %152 = call ptr @proto_item_add_subtree(ptr noundef %147, i32 noundef %151)
  store ptr %152, ptr %27, align 8
  br label %155

153:                                              ; preds = %134, %130
  store ptr null, ptr %26, align 8
  %154 = load ptr, ptr %25, align 8
  store ptr %154, ptr %27, align 8
  br label %155

155:                                              ; preds = %153, %139
  %156 = load ptr, ptr %9, align 8
  %157 = load i32, ptr %19, align 4
  %158 = load i32, ptr %11, align 4
  %159 = load ptr, ptr %10, align 8
  %160 = load ptr, ptr %27, align 8
  %161 = load ptr, ptr %17, align 8
  %162 = getelementptr inbounds nuw %struct.smb_transact_info_t, ptr %161, i32 0, i32 6
  %163 = load ptr, ptr %162, align 8
  %164 = load ptr, ptr %23, align 8
  %165 = load ptr, ptr %13, align 8
  %166 = call i32 @dissect_transact_data(ptr noundef %156, i32 noundef %157, i32 noundef %158, ptr noundef %159, ptr noundef %160, ptr noundef %163, ptr noundef %164, ptr noundef %30, ptr noundef %165)
  store i32 %166, ptr %19, align 4
  %167 = load ptr, ptr %17, align 8
  %168 = getelementptr inbounds nuw %struct.smb_transact_info_t, ptr %167, i32 0, i32 7
  %169 = load ptr, ptr %168, align 8
  %170 = icmp ne ptr %169, null
  br i1 %170, label %171, label %195

171:                                              ; preds = %155
  store i32 0, ptr %29, align 4
  br label %172

172:                                              ; preds = %191, %171
  %173 = load i32, ptr %29, align 4
  %174 = load i16, ptr %30, align 2
  %175 = zext i16 %174 to i32
  %176 = icmp ult i32 %173, %175
  br i1 %176, label %177, label %194

177:                                              ; preds = %172
  %178 = load ptr, ptr %9, align 8
  %179 = load i32, ptr %19, align 4
  %180 = load i32, ptr %11, align 4
  %181 = load ptr, ptr %10, align 8
  %182 = load ptr, ptr %27, align 8
  %183 = load ptr, ptr %17, align 8
  %184 = getelementptr inbounds nuw %struct.smb_transact_info_t, ptr %183, i32 0, i32 6
  %185 = load ptr, ptr %184, align 8
  %186 = load ptr, ptr %14, align 8
  %187 = getelementptr inbounds nuw %struct.lanman_desc, ptr %186, i32 0, i32 12
  %188 = load ptr, ptr %187, align 8
  %189 = load ptr, ptr %13, align 8
  %190 = call i32 @dissect_transact_data(ptr noundef %178, i32 noundef %179, i32 noundef %180, ptr noundef %181, ptr noundef %182, ptr noundef %185, ptr noundef %188, ptr noundef null, ptr noundef %189)
  store i32 %190, ptr %19, align 4
  br label %191

191:                                              ; preds = %177
  %192 = load i32, ptr %29, align 4
  %193 = add i32 %192, 1
  store i32 %193, ptr %29, align 4
  br label %172, !llvm.loop !16

194:                                              ; preds = %172
  br label %195

195:                                              ; preds = %194, %155
  %196 = load ptr, ptr %26, align 8
  %197 = icmp ne ptr %196, null
  br i1 %197, label %198, label %203

198:                                              ; preds = %195
  %199 = load ptr, ptr %26, align 8
  %200 = load i32, ptr %19, align 4
  %201 = load i32, ptr %20, align 4
  %202 = sub i32 %200, %201
  call void @proto_item_set_len(ptr noundef %199, i32 noundef %202)
  br label %203

203:                                              ; preds = %198, %195
  br label %204

204:                                              ; preds = %203
  %205 = load i32, ptr %28, align 4
  %206 = add i32 %205, 1
  store i32 %206, ptr %28, align 4
  br label %125, !llvm.loop !17

207:                                              ; preds = %125
  br label %208

208:                                              ; preds = %207, %114
  %209 = load ptr, ptr %24, align 8
  %210 = icmp ne ptr %209, null
  br i1 %210, label %211, label %214

211:                                              ; preds = %208
  %212 = load ptr, ptr %24, align 8
  %213 = load i32, ptr %19, align 4
  call void @proto_item_set_len(ptr noundef %212, i32 noundef %213)
  br label %214

214:                                              ; preds = %211, %208
  call void @llvm.lifetime.end.p0(i64 2, ptr %30) #7
  call void @llvm.lifetime.end.p0(i64 4, ptr %29) #7
  call void @llvm.lifetime.end.p0(i64 4, ptr %28) #7
  call void @llvm.lifetime.end.p0(i64 8, ptr %27) #7
  call void @llvm.lifetime.end.p0(i64 8, ptr %26) #7
  call void @llvm.lifetime.end.p0(i64 8, ptr %25) #7
  call void @llvm.lifetime.end.p0(i64 8, ptr %24) #7
  call void @llvm.lifetime.end.p0(i64 8, ptr %23) #7
  call void @llvm.lifetime.end.p0(i64 4, ptr %22) #7
  call void @llvm.lifetime.end.p0(i64 8, ptr %21) #7
  call void @llvm.lifetime.end.p0(i64 4, ptr %20) #7
  call void @llvm.lifetime.end.p0(i64 4, ptr %19) #7
  call void @llvm.lifetime.end.p0(i64 8, ptr %18) #7
  call void @llvm.lifetime.end.p0(i64 8, ptr %17) #7
  ret void
}