; Function Attrs: null_pointer_is_valid sspstrong uwtable
define internal fastcc void @dissect_response_data(ptr noundef nonnull %0, ptr noundef %1, i32 noundef range(i32 0, 65536) %2, ptr noundef %3, ptr noundef %4, ptr noundef readonly captures(none) %5, i1 noundef zeroext %6, i16 noundef zeroext %7) unnamed_addr #0 {
  %9 = alloca ptr, align 8
  %10 = alloca i16, align 2
  call void @llvm.lifetime.start.p0(i64 8, ptr nonnull %9) #9
  store ptr null, ptr %9, align 8
  call void @llvm.lifetime.start.p0(i64 2, ptr nonnull %10) #9
  %11 = getelementptr inbounds nuw i8, ptr %4, i64 40
  %12 = load ptr, ptr %11, align 8
  %13 = getelementptr inbounds nuw i8, ptr %12, i64 32
  %14 = load ptr, ptr %13, align 8
  %15 = getelementptr inbounds nuw i8, ptr %5, i64 88
  %16 = load ptr, ptr %15, align 8
  %17 = load i32, ptr %16, align 8
  %.not86 = icmp eq i32 %17, -1
  br i1 %.not86, label %._crit_edge, label %.lr.ph

.lr.ph:                                           ; preds = %8
  %18 = getelementptr inbounds nuw i8, ptr %14, i64 40
  %19 = load i32, ptr %18, align 8
  br label %20

20:                                               ; preds = %.lr.ph, %23
  %21 = phi i32 [ %17, %.lr.ph ], [ %25, %23 ]
  %.07087 = phi ptr [ %16, %.lr.ph ], [ %24, %23 ]
  %22 = icmp eq i32 %21, %19
  br i1 %22, label %._crit_edge, label %23

23:                                               ; preds = %20
  %24 = getelementptr i8, ptr %.07087, i64 16
  %25 = load i32, ptr %24, align 8
  %.not = icmp eq i32 %25, -1
  br i1 %.not, label %._crit_edge, label %20, !llvm.loop !16

._crit_edge:                                      ; preds = %23, %20, %8
  %.070.lcssa = phi ptr [ %16, %8 ], [ %.07087, %20 ], [ %24, %23 ]
  %26 = getelementptr inbounds nuw i8, ptr %.070.lcssa, i64 8
  %27 = load ptr, ptr %26, align 8
  %28 = icmp ne ptr %3, null
  %or.cond = and i1 %28, %6
  br i1 %or.cond, label %29, label %36

29:                                               ; preds = %._crit_edge
  %30 = getelementptr inbounds nuw i8, ptr %5, i64 56
  %31 = load ptr, ptr %30, align 8
  %32 = icmp eq ptr %31, null
  %spec.store.select = select i1 %32, ptr @.str.733, ptr %31
  %33 = getelementptr inbounds nuw i8, ptr %5, i64 64
  %34 = load ptr, ptr %33, align 8
  %.not78 = icmp eq ptr %34, null
  %ett_lanman_unknown_entries. = select i1 %.not78, ptr @ett_lanman_unknown_entries, ptr %34
  %.069 = load i32, ptr %ett_lanman_unknown_entries., align 4
  %35 = call ptr @proto_tree_add_subtree(ptr noundef nonnull %3, ptr noundef nonnull %0, i32 noundef 0, i32 noundef -1, i32 noundef %.069, ptr noundef nonnull %9, ptr noundef nonnull %spec.store.select)
  br label %36

36:                                               ; preds = %29, %._crit_edge
  %.067 = phi ptr [ %35, %29 ], [ null, %._crit_edge ]
  %37 = getelementptr inbounds nuw i8, ptr %14, i64 24
  %38 = load ptr, ptr %37, align 8
  %39 = icmp eq ptr %38, null
  br i1 %39, label %69, label %.preheader84

.preheader84:                                     ; preds = %36
  %40 = zext i16 %7 to i32
  %41 = select i1 %6, i32 %40, i32 1
  %.not104 = icmp eq i32 %41, 0
  br i1 %.not104, label %.loopexit85, label %.lr.ph96

.lr.ph96:                                         ; preds = %.preheader84
  %42 = getelementptr inbounds nuw i8, ptr %5, i64 72
  %43 = getelementptr inbounds nuw i8, ptr %5, i64 80
  %44 = getelementptr inbounds nuw i8, ptr %14, i64 32
  %45 = getelementptr inbounds nuw i8, ptr %5, i64 96
  br i1 %6, label %.lr.ph96.split.us, label %.lr.ph96.split

.lr.ph96.split.us:                                ; preds = %.lr.ph96, %67
  %.06495.us = phi i32 [ %68, %67 ], [ 0, %.lr.ph96 ]
  %.194.us = phi i32 [ %.2.us, %67 ], [ 0, %.lr.ph96 ]
  %46 = load ptr, ptr %42, align 8
  %.not79.us = icmp eq ptr %46, null
  br i1 %.not79.us, label %52, label %47

47:                                               ; preds = %.lr.ph96.split.us
  %48 = call ptr %46(ptr noundef nonnull %0, ptr noundef %.067, i32 noundef %.194.us)
  %49 = load ptr, ptr %43, align 8
  %50 = load i32, ptr %49, align 4
  %51 = call ptr @proto_item_add_subtree(ptr noundef %48, i32 noundef %50)
  br label %52

52:                                               ; preds = %47, %.lr.ph96.split.us
  %.066.us = phi ptr [ %48, %47 ], [ null, %.lr.ph96.split.us ]
  %.065.us = phi ptr [ %51, %47 ], [ %.067, %.lr.ph96.split.us ]
  %53 = load ptr, ptr %37, align 8
  %54 = call fastcc i32 @dissect_transact_data(ptr noundef %0, i32 noundef %.194.us, i32 noundef %2, ptr noundef %1, ptr noundef %.065.us, ptr noundef %53, ptr noundef %27, ptr noundef nonnull %10, ptr noundef %4)
  %55 = load ptr, ptr %44, align 8
  %.not80.us = icmp ne ptr %55, null
  %56 = load i16, ptr %10, align 2
  %57 = icmp ne i16 %56, 0
  %or.cond100 = select i1 %.not80.us, i1 %57, i1 false
  br i1 %or.cond100, label %.lr.ph92.us, label %.loopexit.us

.lr.ph92.us:                                      ; preds = %52, %.lr.ph92.us
  %.091.us = phi i32 [ %61, %.lr.ph92.us ], [ 0, %52 ]
  %.390.us = phi i32 [ %60, %.lr.ph92.us ], [ %54, %52 ]
  %58 = load ptr, ptr %37, align 8
  %59 = load ptr, ptr %45, align 8
  %60 = call fastcc i32 @dissect_transact_data(ptr noundef %0, i32 noundef %.390.us, i32 noundef %2, ptr noundef %1, ptr noundef %.065.us, ptr noundef %58, ptr noundef %59, ptr noundef null, ptr noundef %4)
  %61 = add nuw nsw i32 %.091.us, 1
  %62 = load i16, ptr %10, align 2
  %63 = zext i16 %62 to i32
  %64 = icmp samesign ult i32 %61, %63
  br i1 %64, label %.lr.ph92.us, label %.loopexit.us, !llvm.loop !17

.loopexit.us:                                     ; preds = %.lr.ph92.us, %52
  %.2.us = phi i32 [ %54, %52 ], [ %60, %.lr.ph92.us ]
  %.not81.us = icmp eq ptr %.066.us, null
  br i1 %.not81.us, label %67, label %65

65:                                               ; preds = %.loopexit.us
  %66 = sub i32 %.2.us, %.194.us
  call void @proto_item_set_len(ptr noundef nonnull %.066.us, i32 noundef %66)
  br label %67

67:                                               ; preds = %65, %.loopexit.us
  %68 = add nuw nsw i32 %.06495.us, 1
  %exitcond107.not = icmp eq i32 %68, %41
  br i1 %exitcond107.not, label %.loopexit85, label %.lr.ph96.split.us, !llvm.loop !18

69:                                               ; preds = %36
  br i1 %6, label %70, label %73

70:                                               ; preds = %69
  %71 = load ptr, ptr %9, align 8
  %.not82 = icmp eq ptr %71, null
  br i1 %.not82, label %76, label %72

72:                                               ; preds = %70
  call void (ptr, ptr, ...) @proto_item_append_text(ptr noundef nonnull %71, ptr noundef nonnull @.str.734)
  br label %76

73:                                               ; preds = %69
  %74 = load i32, ptr @hf_data_no_descriptor, align 4
  %75 = call ptr @proto_tree_add_item(ptr noundef %.067, i32 noundef %74, ptr noundef nonnull %0, i32 noundef 0, i32 noundef -1, i32 noundef 0)
  br label %76

76:                                               ; preds = %70, %72, %73
  %77 = call i32 @tvb_captured_length_remaining(ptr noundef nonnull %0, i32 noundef 0)
  br label %.loopexit85

.lr.ph96.split:                                   ; preds = %.lr.ph96, %.loopexit
  %.06495 = phi i32 [ %90, %.loopexit ], [ 0, %.lr.ph96 ]
  %.194 = phi i32 [ %.2, %.loopexit ], [ 0, %.lr.ph96 ]
  %78 = load ptr, ptr %37, align 8
  %79 = call fastcc i32 @dissect_transact_data(ptr noundef %0, i32 noundef %.194, i32 noundef %2, ptr noundef %1, ptr noundef %.067, ptr noundef %78, ptr noundef %27, ptr noundef nonnull %10, ptr noundef %4)
  %80 = load ptr, ptr %44, align 8
  %.not80 = icmp ne ptr %80, null
  %81 = load i16, ptr %10, align 2
  %82 = icmp ne i16 %81, 0
  %or.cond103 = select i1 %.not80, i1 %82, i1 false
  br i1 %or.cond103, label %.lr.ph92, label %.loopexit

.lr.ph92:                                         ; preds = %.lr.ph96.split, %.lr.ph92
  %.091 = phi i32 [ %86, %.lr.ph92 ], [ 0, %.lr.ph96.split ]
  %.390 = phi i32 [ %85, %.lr.ph92 ], [ %79, %.lr.ph96.split ]
  %83 = load ptr, ptr %37, align 8
  %84 = load ptr, ptr %45, align 8
  %85 = call fastcc i32 @dissect_transact_data(ptr noundef %0, i32 noundef %.390, i32 noundef %2, ptr noundef %1, ptr noundef %.067, ptr noundef %83, ptr noundef %84, ptr noundef null, ptr noundef %4)
  %86 = add nuw nsw i32 %.091, 1
  %87 = load i16, ptr %10, align 2
  %88 = zext i16 %87 to i32
  %89 = icmp samesign ult i32 %86, %88
  br i1 %89, label %.lr.ph92, label %.loopexit, !llvm.loop !17

.loopexit:                                        ; preds = %.lr.ph92, %.lr.ph96.split
  %.2 = phi i32 [ %79, %.lr.ph96.split ], [ %85, %.lr.ph92 ]
  %90 = add nuw nsw i32 %.06495, 1
  %exitcond.not = icmp eq i32 %90, %41
  br i1 %exitcond.not, label %.loopexit85, label %.lr.ph96.split, !llvm.loop !18

.loopexit85:                                      ; preds = %.loopexit, %67, %.preheader84, %76
  %.071 = phi i32 [ %77, %76 ], [ 0, %.preheader84 ], [ %.2.us, %67 ], [ %.2, %.loopexit ]
  %91 = load ptr, ptr %9, align 8
  %.not83 = icmp eq ptr %91, null
  br i1 %.not83, label %93, label %92

92:                                               ; preds = %.loopexit85
  call void @proto_item_set_len(ptr noundef nonnull %91, i32 noundef %.071)
  br label %93

93:                                               ; preds = %92, %.loopexit85
  call void @llvm.lifetime.end.p0(i64 2, ptr nonnull %10) #9
  call void @llvm.lifetime.end.p0(i64 8, ptr nonnull %9) #9
  ret void
}